target datalayout = "e-m:e-p270:32:32-p271:32:32-p272:64:64-i64:64-i128:128-f80:128-n8:16:32:64-S128"
target triple = "x86_64-pc-linux-gnu"

@loadFileData = internal global ptr null, align 8
@.str.7 = private unnamed_addr constant [3 x i8] c"rb\00", align 1
@.str.8 = private unnamed_addr constant [78 x i8] c"FILEIO: [%s] File is bigger than 2147483647 bytes, avoid using LoadFileData()\00", align 1
@.str.9 = private unnamed_addr constant [56 x i8] c"FILEIO: [%s] File partially loaded (%i bytes out of %i)\00", align 1
@.str.10 = private unnamed_addr constant [38 x i8] c"FILEIO: [%s] File loaded successfully\00", align 1
@.str.11 = private unnamed_addr constant [57 x i8] c"FILEIO: [%s] Failed to allocated memory for file reading\00", align 1
@.str.12 = private unnamed_addr constant [33 x i8] c"FILEIO: [%s] Failed to read file\00", align 1
@.str.13 = private unnamed_addr constant [33 x i8] c"FILEIO: [%s] Failed to open file\00", align 1
@.str.14 = private unnamed_addr constant [40 x i8] c"FILEIO: File name provided is not valid\00", align 1

; Function Attrs: nounwind uwtable
define ptr @LoadFileData(ptr noundef %0, ptr noundef %1) #0 {
  %3 = alloca ptr, align 8
  %4 = alloca ptr, align 8
  %5 = alloca ptr, align 8
  %6 = alloca ptr, align 8
  %7 = alloca i32, align 4
  %8 = alloca ptr, align 8
  %9 = alloca i32, align 4
  %10 = alloca i64, align 8
  store ptr %0, ptr %4, align 8
  store ptr %1, ptr %5, align 8
  call void @llvm.lifetime.start.p0(i64 8, ptr %6) #13
  store ptr null, ptr %6, align 8
  %11 = load ptr, ptr %5, align 8
  store i32 0, ptr %11, align 4
  %12 = load ptr, ptr %4, align 8
  %13 = icmp ne ptr %12, null
  br i1 %13, label %14, label %83

14:                                               ; preds = %2
  %15 = load ptr, ptr @loadFileData, align 8
  %16 = icmp ne ptr %15, null
  br i1 %16, label %17, label %23

17:                                               ; preds = %14
  %18 = load ptr, ptr @loadFileData, align 8
  %19 = load ptr, ptr %4, align 8
  %20 = load ptr, ptr %5, align 8
  %21 = call ptr %18(ptr noundef %19, ptr noundef %20)
  store ptr %21, ptr %6, align 8
  %22 = load ptr, ptr %6, align 8
  store ptr %22, ptr %3, align 8
  store i32 1, ptr %7, align 4
  br label %86

23:                                               ; preds = %14
  call void @llvm.lifetime.start.p0(i64 8, ptr %8) #13
  %24 = load ptr, ptr %4, align 8
  %25 = call noalias ptr @fopen(ptr noundef %24, ptr noundef @.str.7)
  store ptr %25, ptr %8, align 8
  %26 = load ptr, ptr %8, align 8
  %27 = icmp ne ptr %26, null
  br i1 %27, label %28, label %80

28:                                               ; preds = %23
  %29 = load ptr, ptr %8, align 8
  %30 = call i32 @fseek(ptr noundef %29, i64 noundef 0, i32 noundef 2)
  call void @llvm.lifetime.start.p0(i64 4, ptr %9) #13
  %31 = load ptr, ptr %8, align 8
  %32 = call i64 @ftell(ptr noundef %31)
  %33 = trunc i64 %32 to i32
  store i32 %33, ptr %9, align 4
  %34 = load ptr, ptr %8, align 8
  %35 = call i32 @fseek(ptr noundef %34, i64 noundef 0, i32 noundef 0)
  %36 = load i32, ptr %9, align 4
  %37 = icmp sgt i32 %36, 0
  br i1 %37, label %38, label %75

38:                                               ; preds = %28
  %39 = load i32, ptr %9, align 4
  %40 = sext i32 %39 to i64
  %41 = mul i64 %40, 1
  %42 = call noalias ptr @malloc(i64 noundef %41) #18
  store ptr %42, ptr %6, align 8
  %43 = load ptr, ptr %6, align 8
  %44 = icmp ne ptr %43, null
  br i1 %44, label %45, label %72

45:                                               ; preds = %38
  call void @llvm.lifetime.start.p0(i64 8, ptr %10) #13
  %46 = load ptr, ptr %6, align 8
  %47 = load i32, ptr %9, align 4
  %48 = sext i32 %47 to i64
  %49 = load ptr, ptr %8, align 8
  %50 = call i64 @fread(ptr noundef %46, i64 noundef 1, i64 noundef %48, ptr noundef %49)
  store i64 %50, ptr %10, align 8
  %51 = load i64, ptr %10, align 8
  %52 = icmp ugt i64 %51, 2147483647
  br i1 %52, label %53, label %56

53:                                               ; preds = %45
  %54 = load ptr, ptr %4, align 8
  call void (i32, ptr, ...) @TraceLog(i32 noundef 4, ptr noundef @.str.8, ptr noundef %54)
  %55 = load ptr, ptr %6, align 8
  call void @free(ptr noundef %55) #13
  store ptr null, ptr %6, align 8
  br label %71

56:                                               ; preds = %45
  %57 = load i64, ptr %10, align 8
  %58 = trunc i64 %57 to i32
  %59 = load ptr, ptr %5, align 8
  store i32 %58, ptr %59, align 4
  %60 = load ptr, ptr %5, align 8
  %61 = load i32, ptr %60, align 4
  %62 = load i32, ptr %9, align 4
  %63 = icmp ne i32 %61, %62
  br i1 %63, label %64, label %68

64:                                               ; preds = %56
  %65 = load ptr, ptr %4, align 8
  %66 = load ptr, ptr %5, align 8
  %67 = load i64, ptr %10, align 8
  call void (i32, ptr, ...) @TraceLog(i32 noundef 4, ptr noundef @.str.9, ptr noundef %65, ptr noundef %66, i64 noundef %67)
  br label %70

68:                                               ; preds = %56
  %69 = load ptr, ptr %4, align 8
  call void (i32, ptr, ...) @TraceLog(i32 noundef 3, ptr noundef @.str.10, ptr noundef %69)
  br label %70

70:                                               ; preds = %68, %64
  br label %71

71:                                               ; preds = %70, %53
  call void @llvm.lifetime.end.p0(i64 8, ptr %10) #13
  br label %74

72:                                               ; preds = %38
  %73 = load ptr, ptr %4, align 8
  call void (i32, ptr, ...) @TraceLog(i32 noundef 4, ptr noundef @.str.11, ptr noundef %73)
  br label %74

74:                                               ; preds = %72, %71
  br label %77

75:                                               ; preds = %28
  %76 = load ptr, ptr %4, align 8
  call void (i32, ptr, ...) @TraceLog(i32 noundef 4, ptr noundef @.str.12, ptr noundef %76)
  br label %77

77:                                               ; preds = %75, %74
  %78 = load ptr, ptr %8, align 8
  %79 = call i32 @fclose(ptr noundef %78)
  call void @llvm.lifetime.end.p0(i64 4, ptr %9) #13
  br label %82

80:                                               ; preds = %23
  %81 = load ptr, ptr %4, align 8
  call void (i32, ptr, ...) @TraceLog(i32 noundef 4, ptr noundef @.str.13, ptr noundef %81)
  br label %82

82:                                               ; preds = %80, %77
  call void @llvm.lifetime.end.p0(i64 8, ptr %8) #13
  br label %84

83:                                               ; preds = %2
  call void (i32, ptr, ...) @TraceLog(i32 noundef 4, ptr noundef @.str.14)
  br label %84

84:                                               ; preds = %83, %82
  %85 = load ptr, ptr %6, align 8
  store ptr %85, ptr %3, align 8
  store i32 1, ptr %7, align 4
  br label %86

86:                                               ; preds = %84, %17
  call void @llvm.lifetime.end.p0(i64 8, ptr %6) #13
  %87 = load ptr, ptr %3, align 8
  ret ptr %87
}