; Function Attrs: nounwind uwtable
define ptr @LoadFileData(ptr noundef %0, ptr noundef initializes((0, 4)) %1) local_unnamed_addr #1 {
  store i32 0, ptr %1, align 4
  %.not = icmp eq ptr %0, null
  br i1 %.not, label %31, label %3

3:                                                ; preds = %2
  %4 = load ptr, ptr @loadFileData, align 8
  %.not40 = icmp eq ptr %4, null
  br i1 %.not40, label %7, label %5

5:                                                ; preds = %3
  %6 = tail call ptr %4(ptr noundef nonnull %0, ptr noundef nonnull %1) #18
  br label %32

7:                                                ; preds = %3
  %8 = tail call noalias ptr @fopen(ptr noundef nonnull %0, ptr noundef nonnull @.str.7)
  %.not41 = icmp eq ptr %8, null
  br i1 %.not41, label %30, label %9

9:                                                ; preds = %7
  %10 = tail call i32 @fseek(ptr noundef nonnull %8, i64 noundef 0, i32 noundef 2)
  %11 = tail call i64 @ftell(ptr noundef nonnull %8)
  %12 = trunc i64 %11 to i32
  %13 = tail call i32 @fseek(ptr noundef nonnull %8, i64 noundef 0, i32 noundef 0)
  %14 = icmp sgt i32 %12, 0
  br i1 %14, label %15, label %27

15:                                               ; preds = %9
  %16 = and i64 %11, 2147483647
  %17 = tail call noalias ptr @malloc(i64 noundef %16) #23
  %.not42 = icmp eq ptr %17, null
  br i1 %.not42, label %26, label %18

18:                                               ; preds = %15
  %19 = tail call i64 @fread(ptr noundef nonnull %17, i64 noundef 1, i64 noundef %16, ptr noundef nonnull %8)
  %20 = icmp ugt i64 %19, 2147483647
  br i1 %20, label %21, label %22

21:                                               ; preds = %18
  tail call void (i32, ptr, ...) @TraceLog(i32 noundef 4, ptr noundef nonnull @.str.8, ptr noundef nonnull %0)
  tail call void @free(ptr noundef nonnull %17) #18
  br label %28

22:                                               ; preds = %18
  %23 = trunc nuw nsw i64 %19 to i32
  store i32 %23, ptr %1, align 4
  %.not43 = icmp eq i32 %23, %12
  br i1 %.not43, label %25, label %24

24:                                               ; preds = %22
  tail call void (i32, ptr, ...) @TraceLog(i32 noundef 4, ptr noundef nonnull @.str.9, ptr noundef nonnull %0, ptr noundef nonnull %1, i64 noundef %19)
  br label %28

25:                                               ; preds = %22
  tail call void (i32, ptr, ...) @TraceLog(i32 noundef 3, ptr noundef nonnull @.str.10, ptr noundef nonnull %0)
  br label %28

26:                                               ; preds = %15
  tail call void (i32, ptr, ...) @TraceLog(i32 noundef 4, ptr noundef nonnull @.str.11, ptr noundef nonnull %0)
  br label %28

27:                                               ; preds = %9
  tail call void (i32, ptr, ...) @TraceLog(i32 noundef 4, ptr noundef nonnull @.str.12, ptr noundef nonnull %0)
  br label %28

28:                                               ; preds = %21, %25, %24, %26, %27
  %.1 = phi ptr [ null, %26 ], [ null, %27 ], [ null, %21 ], [ %17, %24 ], [ %17, %25 ]
  %29 = tail call i32 @fclose(ptr noundef nonnull %8)
  br label %32

30:                                               ; preds = %7
  tail call void (i32, ptr, ...) @TraceLog(i32 noundef 4, ptr noundef nonnull @.str.13, ptr noundef nonnull %0)
  br label %32

31:                                               ; preds = %2
  tail call void (i32, ptr, ...) @TraceLog(i32 noundef 4, ptr noundef nonnull @.str.14)
  br label %32

32:                                               ; preds = %31, %30, %28, %5
  %.0 = phi ptr [ %6, %5 ], [ null, %31 ], [ %.1, %28 ], [ null, %30 ]
  ret ptr %.0
}